target datalayout = "e-m:e-p270:32:32-p271:32:32-p272:64:64-i64:64-i128:128-f80:128-n8:16:32:64-S128"
target triple = "x86_64-pc-linux-gnu"

%"struct.duckdb_re2::PatchList" = type { i32, i32 }
%"class.duckdb_re2::Compiler" = type <{ %"class.duckdb_re2::Regexp::Walker", ptr, i8, [3 x i8], i32, i8, [7 x i8], %"class.duckdb_re2::PODArray", i32, i32, i64, %"class.std::unordered_map", %"struct.duckdb_re2::Frag", i32, [4 x i8] }>
%"class.duckdb_re2::Regexp::Walker" = type { ptr, %"class.std::stack", i8, i32 }
%"class.std::stack" = type { %"class.std::deque" }
%"class.std::deque" = type { %"class.std::_Deque_base" }
%"class.std::_Deque_base" = type { %"struct.std::_Deque_base<duckdb_re2::WalkState<duckdb_re2::Frag>, std::allocator<duckdb_re2::WalkState<duckdb_re2::Frag>>>::_Deque_impl" }
%"struct.std::_Deque_base<duckdb_re2::WalkState<duckdb_re2::Frag>, std::allocator<duckdb_re2::WalkState<duckdb_re2::Frag>>>::_Deque_impl" = type { %"struct.std::_Deque_base<duckdb_re2::WalkState<duckdb_re2::Frag>, std::allocator<duckdb_re2::WalkState<duckdb_re2::Frag>>>::_Deque_impl_data" }
%"struct.std::_Deque_base<duckdb_re2::WalkState<duckdb_re2::Frag>, std::allocator<duckdb_re2::WalkState<duckdb_re2::Frag>>>::_Deque_impl_data" = type { ptr, i64, %"struct.std::_Deque_iterator", %"struct.std::_Deque_iterator" }
%"struct.std::_Deque_iterator" = type { ptr, ptr, ptr, ptr }
%"class.duckdb_re2::PODArray" = type { %"class.std::unique_ptr" }
%"class.std::unique_ptr" = type { %"struct.std::__uniq_ptr_data" }
%"struct.std::__uniq_ptr_data" = type { %"class.std::__uniq_ptr_impl" }
%"class.std::__uniq_ptr_impl" = type { %"class.std::tuple" }
%"class.std::tuple" = type { %"struct.std::_Tuple_impl" }
%"struct.std::_Tuple_impl" = type { %"struct.std::_Tuple_impl.0", %"struct.std::_Head_base.1" }
%"struct.std::_Tuple_impl.0" = type { %"struct.std::_Head_base" }
%"struct.std::_Head_base" = type { %"struct.duckdb_re2::PODArray<duckdb_re2::Prog::Inst>::Deleter" }
%"struct.duckdb_re2::PODArray<duckdb_re2::Prog::Inst>::Deleter" = type { i32 }
%"struct.std::_Head_base.1" = type { ptr }
%"class.std::unordered_map" = type { %"class.std::_Hashtable" }
%"class.std::_Hashtable" = type { ptr, i64, %"struct.std::__detail::_Hash_node_base", i64, %"struct.std::__detail::_Prime_rehash_policy", ptr }
%"struct.std::__detail::_Hash_node_base" = type { ptr }
%"struct.std::__detail::_Prime_rehash_policy" = type { float, i64 }
%"struct.duckdb_re2::Frag" = type <{ i32, %"struct.duckdb_re2::PatchList", i8, [3 x i8] }>
%"class.duckdb_re2::Prog::Inst" = type { i32, %union.anon.25 }
%union.anon.25 = type { i32 }

; Function Attrs: mustprogress nounwind uwtable
define linkonce_odr hidden noundef nonnull align 8 dereferenceable(8) ptr @_ZNSt10_Head_baseILm0EPN10duckdb_re24Prog4InstELb0EE7_M_headERKS4_(ptr noundef nonnull align 8 dereferenceable(8) %0) #1 comdat align 2 {
  %2 = alloca ptr, align 8
  store ptr %0, ptr %2, align 8, !tbaa !248
  %3 = load ptr, ptr %2, align 8, !tbaa !248
  %4 = getelementptr inbounds nuw %"struct.std::_Head_base.1", ptr %3, i32 0, i32 0
  ret ptr %4
}

; Function Attrs: mustprogress nounwind uwtable
define linkonce_odr hidden noundef nonnull align 8 dereferenceable(8) ptr @_ZNSt11_Tuple_implILm0EJPN10duckdb_re24Prog4InstENS0_8PODArrayIS2_E7DeleterEEE7_M_headERKS7_(ptr noundef nonnull align 8 dereferenceable(16) %0) #1 comdat align 2 {
  %2 = alloca ptr, align 8
  store ptr %0, ptr %2, align 8, !tbaa !246
  %3 = load ptr, ptr %2, align 8, !tbaa !246
  %4 = getelementptr inbounds i8, ptr %3, i64 8
  %5 = call noundef nonnull align 8 dereferenceable(8) ptr @_ZNSt10_Head_baseILm0EPN10duckdb_re24Prog4InstELb0EE7_M_headERKS4_(ptr noundef nonnull align 8 dereferenceable(8) %4) #18
  ret ptr %5
}

; Function Attrs: mustprogress nounwind uwtable
define linkonce_odr hidden noundef nonnull align 8 dereferenceable(8) ptr @_ZSt12__get_helperILm0EPN10duckdb_re24Prog4InstEJNS0_8PODArrayIS2_E7DeleterEEERKT0_RKSt11_Tuple_implIXT_EJS7_DpT1_EE(ptr noundef nonnull align 8 dereferenceable(16) %0) #1 comdat {
  %2 = alloca ptr, align 8
  store ptr %0, ptr %2, align 8, !tbaa !246
  %3 = load ptr, ptr %2, align 8, !tbaa !246
  %4 = call noundef nonnull align 8 dereferenceable(8) ptr @_ZNSt11_Tuple_implILm0EJPN10duckdb_re24Prog4InstENS0_8PODArrayIS2_E7DeleterEEE7_M_headERKS7_(ptr noundef nonnull align 8 dereferenceable(16) %3) #18
  ret ptr %4
}

; Function Attrs: mustprogress nounwind uwtable
define linkonce_odr hidden noundef nonnull align 8 dereferenceable(8) ptr @_ZSt3getILm0EJPN10duckdb_re24Prog4InstENS0_8PODArrayIS2_E7DeleterEEERKNSt13tuple_elementIXT_ESt5tupleIJDpT0_EEE4typeERKSB_(ptr noundef nonnull align 8 dereferenceable(16) %0) #1 comdat {
  %2 = alloca ptr, align 8
  store ptr %0, ptr %2, align 8, !tbaa !244
  %3 = load ptr, ptr %2, align 8, !tbaa !244
  %4 = call noundef nonnull align 8 dereferenceable(8) ptr @_ZSt12__get_helperILm0EPN10duckdb_re24Prog4InstEJNS0_8PODArrayIS2_E7DeleterEEERKT0_RKSt11_Tuple_implIXT_EJS7_DpT1_EE(ptr noundef nonnull align 8 dereferenceable(16) %3) #18
  ret ptr %4
}

; Function Attrs: mustprogress nounwind uwtable
define linkonce_odr hidden noundef ptr @_ZNKSt15__uniq_ptr_implIN10duckdb_re24Prog4InstENS0_8PODArrayIS2_E7DeleterEE6_M_ptrEv(ptr noundef nonnull align 8 dereferenceable(16) %0) #1 comdat align 2 {
  %2 = alloca ptr, align 8
  store ptr %0, ptr %2, align 8, !tbaa !240
  %3 = load ptr, ptr %2, align 8
  %4 = getelementptr inbounds nuw %"class.std::__uniq_ptr_impl", ptr %3, i32 0, i32 0
  %5 = call noundef nonnull align 8 dereferenceable(8) ptr @_ZSt3getILm0EJPN10duckdb_re24Prog4InstENS0_8PODArrayIS2_E7DeleterEEERKNSt13tuple_elementIXT_ESt5tupleIJDpT0_EEE4typeERKSB_(ptr noundef nonnull align 8 dereferenceable(16) %4) #18
  %6 = load ptr, ptr %5, align 8, !tbaa !73
  ret ptr %6
}

; Function Attrs: mustprogress nounwind uwtable
define linkonce_odr hidden noundef ptr @_ZNKSt10unique_ptrIA_N10duckdb_re24Prog4InstENS0_8PODArrayIS2_E7DeleterEE3getEv(ptr noundef nonnull align 8 dereferenceable(16) %0) #1 comdat align 2 {
  %2 = alloca ptr, align 8
  store ptr %0, ptr %2, align 8, !tbaa !236
  %3 = load ptr, ptr %2, align 8
  %4 = getelementptr inbounds nuw %"class.std::unique_ptr", ptr %3, i32 0, i32 0
  %5 = call noundef ptr @_ZNKSt15__uniq_ptr_implIN10duckdb_re24Prog4InstENS0_8PODArrayIS2_E7DeleterEE6_M_ptrEv(ptr noundef nonnull align 8 dereferenceable(16) %4) #18
  ret ptr %5
}

; Function Attrs: mustprogress nounwind uwtable
define linkonce_odr hidden noundef nonnull align 4 dereferenceable(8) ptr @_ZNKSt10unique_ptrIA_N10duckdb_re24Prog4InstENS0_8PODArrayIS2_E7DeleterEEixEm(ptr noundef nonnull align 8 dereferenceable(16) %0, i64 noundef %1) #1 comdat align 2 {
  %3 = alloca ptr, align 8
  %4 = alloca i64, align 8
  store ptr %0, ptr %3, align 8, !tbaa !236
  store i64 %1, ptr %4, align 8, !tbaa !84
  %5 = load ptr, ptr %3, align 8
  br label %6

6:                                                ; preds = %2
  br label %7

7:                                                ; preds = %6
  %8 = call noundef ptr @_ZNKSt10unique_ptrIA_N10duckdb_re24Prog4InstENS0_8PODArrayIS2_E7DeleterEE3getEv(ptr noundef nonnull align 8 dereferenceable(16) %5) #18
  %9 = load i64, ptr %4, align 8, !tbaa !84
  %10 = getelementptr inbounds nuw %"class.duckdb_re2::Prog::Inst", ptr %8, i64 %9
  ret ptr %10
}

; Function Attrs: mustprogress uwtable
define linkonce_odr hidden noundef nonnull align 4 dereferenceable(8) ptr @_ZNK10duckdb_re28PODArrayINS_4Prog4InstEEixEi(ptr noundef nonnull align 8 dereferenceable(16) %0, i32 noundef %1) #0 comdat align 2 {
  %3 = alloca ptr, align 8
  %4 = alloca i32, align 4
  store ptr %0, ptr %3, align 8, !tbaa !57
  store i32 %1, ptr %4, align 4, !tbaa !53
  %5 = load ptr, ptr %3, align 8
  %6 = getelementptr inbounds nuw %"class.duckdb_re2::PODArray", ptr %5, i32 0, i32 0
  %7 = load i32, ptr %4, align 4, !tbaa !53
  %8 = sext i32 %7 to i64
  %9 = call noundef nonnull align 4 dereferenceable(8) ptr @_ZNKSt10unique_ptrIA_N10duckdb_re24Prog4InstENS0_8PODArrayIS2_E7DeleterEEixEm(ptr noundef nonnull align 8 dereferenceable(16) %6, i64 noundef %8)
  ret ptr %9
}

; Function Attrs: mustprogress uwtable
define hidden void @_ZN10duckdb_re28Compiler9AddSuffixEi(ptr noundef nonnull align 8 dereferenceable(228) %0, i32 noundef %1) #0 align 2 {
  %3 = alloca ptr, align 8
  %4 = alloca i32, align 4
  %5 = alloca i32, align 4
  %6 = alloca i32, align 4
  store ptr %0, ptr %3, align 8, !tbaa !3
  store i32 %1, ptr %4, align 4, !tbaa !53
  %7 = load ptr, ptr %3, align 8
  %8 = getelementptr inbounds nuw %"class.duckdb_re2::Compiler", ptr %7, i32 0, i32 2
  %9 = load i8, ptr %8, align 8, !tbaa !47, !range !66, !noundef !67
  %10 = trunc i8 %9 to i1
  br i1 %10, label %11, label %12

11:                                               ; preds = %2
  br label %53

12:                                               ; preds = %2
  %13 = getelementptr inbounds nuw %"class.duckdb_re2::Compiler", ptr %7, i32 0, i32 12
  %14 = getelementptr inbounds nuw %"struct.duckdb_re2::Frag", ptr %13, i32 0, i32 0
  %15 = load i32, ptr %14, align 8, !tbaa !83
  %16 = icmp eq i32 %15, 0
  br i1 %16, label %17, label %21

17:                                               ; preds = %12
  %18 = load i32, ptr %4, align 4, !tbaa !53
  %19 = getelementptr inbounds nuw %"class.duckdb_re2::Compiler", ptr %7, i32 0, i32 12
  %20 = getelementptr inbounds nuw %"struct.duckdb_re2::Frag", ptr %19, i32 0, i32 0
  store i32 %18, ptr %20, align 8, !tbaa !83
  br label %53

21:                                               ; preds = %12
  %22 = getelementptr inbounds nuw %"class.duckdb_re2::Compiler", ptr %7, i32 0, i32 4
  %23 = load i32, ptr %22, align 4, !tbaa !48
  %24 = icmp eq i32 %23, 1
  br i1 %24, label %25, label %33

25:                                               ; preds = %21
  %26 = getelementptr inbounds nuw %"class.duckdb_re2::Compiler", ptr %7, i32 0, i32 12
  %27 = getelementptr inbounds nuw %"struct.duckdb_re2::Frag", ptr %26, i32 0, i32 0
  %28 = load i32, ptr %27, align 8, !tbaa !83
  %29 = load i32, ptr %4, align 4, !tbaa !53
  %30 = call noundef i32 @_ZN10duckdb_re28Compiler18AddSuffixRecursiveEii(ptr noundef nonnull align 8 dereferenceable(228) %7, i32 noundef %28, i32 noundef %29)
  %31 = getelementptr inbounds nuw %"class.duckdb_re2::Compiler", ptr %7, i32 0, i32 12
  %32 = getelementptr inbounds nuw %"struct.duckdb_re2::Frag", ptr %31, i32 0, i32 0
  store i32 %30, ptr %32, align 8, !tbaa !83
  br label %53

33:                                               ; preds = %21
  call void @llvm.lifetime.start.p0(i64 4, ptr %5) #18
  %34 = call noundef i32 @_ZN10duckdb_re28Compiler9AllocInstEi(ptr noundef nonnull align 8 dereferenceable(228) %7, i32 noundef 1)
  store i32 %34, ptr %5, align 4, !tbaa !53
  %35 = load i32, ptr %5, align 4, !tbaa !53
  %36 = icmp slt i32 %35, 0
  br i1 %36, label %37, label %40

37:                                               ; preds = %33
  %38 = getelementptr inbounds nuw %"class.duckdb_re2::Compiler", ptr %7, i32 0, i32 12
  %39 = getelementptr inbounds nuw %"struct.duckdb_re2::Frag", ptr %38, i32 0, i32 0
  store i32 0, ptr %39, align 8, !tbaa !83
  store i32 1, ptr %6, align 4
  br label %51

40:                                               ; preds = %33
  %41 = getelementptr inbounds nuw %"class.duckdb_re2::Compiler", ptr %7, i32 0, i32 7
  %42 = load i32, ptr %5, align 4, !tbaa !53
  %43 = call noundef nonnull align 4 dereferenceable(8) ptr @_ZNK10duckdb_re28PODArrayINS_4Prog4InstEEixEi(ptr noundef nonnull align 8 dereferenceable(16) %41, i32 noundef %42)
  %44 = getelementptr inbounds nuw %"class.duckdb_re2::Compiler", ptr %7, i32 0, i32 12
  %45 = getelementptr inbounds nuw %"struct.duckdb_re2::Frag", ptr %44, i32 0, i32 0
  %46 = load i32, ptr %45, align 8, !tbaa !83
  %47 = load i32, ptr %4, align 4, !tbaa !53
  call void @_ZN10duckdb_re24Prog4Inst7InitAltEjj(ptr noundef nonnull align 4 dereferenceable(8) %43, i32 noundef %46, i32 noundef %47)
  %48 = load i32, ptr %5, align 4, !tbaa !53
  %49 = getelementptr inbounds nuw %"class.duckdb_re2::Compiler", ptr %7, i32 0, i32 12
  %50 = getelementptr inbounds nuw %"struct.duckdb_re2::Frag", ptr %49, i32 0, i32 0
  store i32 %48, ptr %50, align 8, !tbaa !83
  store i32 0, ptr %6, align 4
  br label %51

51:                                               ; preds = %40, %37
  call void @llvm.lifetime.end.p0(i64 4, ptr %5) #18
  %52 = load i32, ptr %6, align 4
  switch i32 %52, label %54 [
    i32 0, label %53
    i32 1, label %53
  ]

53:                                               ; preds = %11, %17, %25, %51, %51
  ret void

54:                                               ; preds = %51
  unreachable
}

; Function Attrs: mustprogress uwtable
define hidden void @_ZN10duckdb_re28Compiler18AddRuneRangeLatin1Eiib(ptr noundef nonnull align 8 dereferenceable(228) %0, i32 noundef %1, i32 noundef %2, i1 noundef zeroext %3) #0 align 2 {
  %5 = alloca ptr, align 8
  %6 = alloca i32, align 4
  %7 = alloca i32, align 4
  %8 = alloca i8, align 1
  store ptr %0, ptr %5, align 8, !tbaa !3
  store i32 %1, ptr %6, align 4, !tbaa !53
  store i32 %2, ptr %7, align 4, !tbaa !53
  %9 = zext i1 %3 to i8
  store i8 %9, ptr %8, align 1, !tbaa !72
  %10 = load ptr, ptr %5, align 8
  %11 = load i32, ptr %6, align 4, !tbaa !53
  %12 = load i32, ptr %7, align 4, !tbaa !53
  %13 = icmp sgt i32 %11, %12
  br i1 %13, label %17, label %14

14:                                               ; preds = %4
  %15 = load i32, ptr %6, align 4, !tbaa !53
  %16 = icmp sgt i32 %15, 255
  br i1 %16, label %17, label %18

17:                                               ; preds = %14, %4
  br label %30

18:                                               ; preds = %14
  %19 = load i32, ptr %7, align 4, !tbaa !53
  %20 = icmp sgt i32 %19, 255
  br i1 %20, label %21, label %22

21:                                               ; preds = %18
  store i32 255, ptr %7, align 4, !tbaa !53
  br label %22

22:                                               ; preds = %21, %18
  %23 = load i32, ptr %6, align 4, !tbaa !53
  %24 = trunc i32 %23 to i8
  %25 = load i32, ptr %7, align 4, !tbaa !53
  %26 = trunc i32 %25 to i8
  %27 = load i8, ptr %8, align 1, !tbaa !72, !range !66, !noundef !67
  %28 = trunc i8 %27 to i1
  %29 = call noundef i32 @_ZN10duckdb_re28Compiler22UncachedRuneByteSuffixEhhbi(ptr noundef nonnull align 8 dereferenceable(228) %10, i8 noundef zeroext %24, i8 noundef zeroext %26, i1 noundef zeroext %28, i32 noundef 0)
  call void @_ZN10duckdb_re28Compiler9AddSuffixEi(ptr noundef nonnull align 8 dereferenceable(228) %10, i32 noundef %29)
  br label %30

30:                                               ; preds = %22, %17
  ret void
}

; Function Attrs: mustprogress uwtable
define hidden void @_ZN10duckdb_re28Compiler12AddRuneRangeEiib(ptr noundef nonnull align 8 dereferenceable(228) %0, i32 noundef %1, i32 noundef %2, i1 noundef zeroext %3) #0 align 2 {
  %5 = alloca ptr, align 8
  %6 = alloca i32, align 4
  %7 = alloca i32, align 4
  %8 = alloca i8, align 1
  store ptr %0, ptr %5, align 8, !tbaa !3
  store i32 %1, ptr %6, align 4, !tbaa !53
  store i32 %2, ptr %7, align 4, !tbaa !53
  %9 = zext i1 %3 to i8
  store i8 %9, ptr %8, align 1, !tbaa !72
  %10 = load ptr, ptr %5, align 8
  %11 = getelementptr inbounds nuw %"class.duckdb_re2::Compiler", ptr %10, i32 0, i32 4
  %12 = load i32, ptr %11, align 4, !tbaa !48
  switch i32 %12, label %13 [
    i32 1, label %14
    i32 2, label %19
  ]

13:                                               ; preds = %4
  br label %14

14:                                               ; preds = %4, %13
  %15 = load i32, ptr %6, align 4, !tbaa !53
  %16 = load i32, ptr %7, align 4, !tbaa !53
  %17 = load i8, ptr %8, align 1, !tbaa !72, !range !66, !noundef !67
  %18 = trunc i8 %17 to i1
  call void @_ZN10duckdb_re28Compiler16AddRuneRangeUTF8Eiib(ptr noundef nonnull align 8 dereferenceable(228) %10, i32 noundef %15, i32 noundef %16, i1 noundef zeroext %18)
  br label %24

19:                                               ; preds = %4
  %20 = load i32, ptr %6, align 4, !tbaa !53
  %21 = load i32, ptr %7, align 4, !tbaa !53
  %22 = load i8, ptr %8, align 1, !tbaa !72, !range !66, !noundef !67
  %23 = trunc i8 %22 to i1
  call void @_ZN10duckdb_re28Compiler18AddRuneRangeLatin1Eiib(ptr noundef nonnull align 8 dereferenceable(228) %10, i32 noundef %20, i32 noundef %21, i1 noundef zeroext %23)
  br label %24

24:                                               ; preds = %19, %14
  ret void
}