; Function Attrs: mustprogress uwtable
define hidden void @_ZN10duckdb_re28Compiler12AddRuneRangeEiib(ptr noundef nonnull align 8 dereferenceable(228) %0, i32 noundef %1, i32 noundef %2, i1 noundef zeroext %3) local_unnamed_addr #0 align 2 {
  %5 = getelementptr inbounds nuw i8, ptr %0, i64 108
  %6 = load i32, ptr %5, align 4, !tbaa !50
  %cond = icmp eq i32 %6, 2
  br i1 %cond, label %8, label %7

7:                                                ; preds = %4
  tail call void @_ZN10duckdb_re28Compiler16AddRuneRangeUTF8Eiib(ptr noundef nonnull align 8 dereferenceable(228) %0, i32 noundef %1, i32 noundef %2, i1 noundef zeroext %3)
  br label %_ZN10duckdb_re28Compiler18AddRuneRangeLatin1Eiib.exit

8:                                                ; preds = %4
  %9 = icmp sgt i32 %1, %2
  %10 = icmp sgt i32 %1, 255
  %or.cond.i = or i1 %10, %9
  br i1 %or.cond.i, label %_ZN10duckdb_re28Compiler18AddRuneRangeLatin1Eiib.exit, label %11

11:                                               ; preds = %8
  %spec.store.select.i = tail call i32 @llvm.smin.i32(i32 %2, i32 255)
  %12 = trunc i32 %1 to i8
  %13 = trunc i32 %spec.store.select.i to i8
  %14 = tail call noundef i32 @_ZN10duckdb_re28Compiler22UncachedRuneByteSuffixEhhbi(ptr noundef nonnull align 8 dereferenceable(228) %0, i8 noundef zeroext %12, i8 noundef zeroext %13, i1 noundef zeroext %3, i32 noundef 0)
  %15 = getelementptr inbounds nuw i8, ptr %0, i64 104
  %16 = load i8, ptr %15, align 8, !tbaa !49, !range !56, !noundef !57
  %17 = trunc nuw i8 %16 to i1
  br i1 %17, label %_ZN10duckdb_re28Compiler18AddRuneRangeLatin1Eiib.exit, label %18

18:                                               ; preds = %11
  %19 = getelementptr inbounds nuw i8, ptr %0, i64 208
  %20 = load i32, ptr %19, align 8, !tbaa !79
  %21 = icmp eq i32 %20, 0
  br i1 %21, label %.sink.split.i.i, label %22

22:                                               ; preds = %18
  %23 = load i32, ptr %5, align 4, !tbaa !50
  %24 = icmp eq i32 %23, 1
  br i1 %24, label %25, label %27

25:                                               ; preds = %22
  %26 = tail call noundef i32 @_ZN10duckdb_re28Compiler18AddSuffixRecursiveEii(ptr noundef nonnull align 8 dereferenceable(228) %0, i32 noundef %20, i32 noundef %14)
  br label %.sink.split.i.i

27:                                               ; preds = %22
  %28 = tail call noundef i32 @_ZN10duckdb_re28Compiler9AllocInstEi(ptr noundef nonnull align 8 dereferenceable(228) %0, i32 noundef 1)
  %29 = icmp slt i32 %28, 0
  br i1 %29, label %.sink.split.i.i, label %30

30:                                               ; preds = %27
  %31 = zext nneg i32 %28 to i64
  %32 = getelementptr inbounds nuw i8, ptr %0, i64 128
  %33 = load ptr, ptr %32, align 8, !tbaa !55
  %34 = getelementptr inbounds nuw %"class.duckdb_re2::Prog::Inst", ptr %33, i64 %31
  %35 = load i32, ptr %19, align 8, !tbaa !79
  tail call void @_ZN10duckdb_re24Prog4Inst7InitAltEjj(ptr noundef nonnull align 4 dereferenceable(8) %34, i32 noundef %35, i32 noundef %14)
  br label %.sink.split.i.i

.sink.split.i.i:                                  ; preds = %30, %27, %25, %18
  %storemerge.sink.i.i = phi i32 [ %26, %25 ], [ %14, %18 ], [ %28, %30 ], [ 0, %27 ]
  store i32 %storemerge.sink.i.i, ptr %19, align 8, !tbaa !79
  br label %_ZN10duckdb_re28Compiler18AddRuneRangeLatin1Eiib.exit

_ZN10duckdb_re28Compiler18AddRuneRangeLatin1Eiib.exit: ; preds = %.sink.split.i.i, %11, %8, %7
  ret void
}